; Function Attrs: nounwind uwtable
define internal fastcc i32 @save_string(ptr noundef %0, ptr readonly captures(none) %.24.val) unnamed_addr #2 {
  %2 = alloca i32, align 4
  %3 = load i32, ptr %.24.val, align 8, !tbaa !84
  call void @llvm.lifetime.start.p0(i64 4, ptr nonnull %2) #6
  %4 = icmp slt i32 %3, 0
  br i1 %4, label %5, label %9

5:                                                ; preds = %1
  %6 = getelementptr inbounds nuw i8, ptr %0, i64 56
  %7 = load ptr, ptr %6, align 8, !tbaa !54
  %8 = tail call i32 %7(ptr noundef %0, i32 noundef 3) #6
  br label %save_attr_sz.exit

9:                                                ; preds = %1
  store i32 %3, ptr %2, align 4, !tbaa !43
  %10 = getelementptr inbounds nuw i8, ptr %0, i64 48
  %11 = load ptr, ptr %10, align 8, !tbaa !46
  %12 = getelementptr inbounds nuw i8, ptr %0, i64 176
  %13 = call i32 %11(ptr noundef %0, ptr noundef nonnull %2, i64 noundef 4, ptr noundef nonnull %12) #6
  br label %save_attr_sz.exit

save_attr_sz.exit:                                ; preds = %5, %9
  %.0.i = phi i32 [ %8, %5 ], [ %13, %9 ]
  call void @llvm.lifetime.end.p0(i64 4, ptr nonnull %2) #6
  %14 = icmp eq i32 %.0.i, 0
  br i1 %14, label %15, label %24

15:                                               ; preds = %save_attr_sz.exit
  %16 = getelementptr inbounds nuw i8, ptr %0, i64 48
  %17 = load ptr, ptr %16, align 8, !tbaa !46
  %18 = getelementptr inbounds nuw i8, ptr %.24.val, i64 8
  %19 = load ptr, ptr %18, align 8, !tbaa !85
  %20 = load i32, ptr %.24.val, align 8, !tbaa !84
  %21 = sext i32 %20 to i64
  %22 = getelementptr inbounds nuw i8, ptr %0, i64 176
  %23 = call i32 %17(ptr noundef nonnull %0, ptr noundef %19, i64 noundef %21, ptr noundef nonnull %22) #6
  br label %24

24:                                               ; preds = %15, %save_attr_sz.exit
  %.0 = phi i32 [ %23, %15 ], [ %.0.i, %save_attr_sz.exit ]
  ret i32 %.0
}